; Function Attrs: nounwind sspstrong uwtable
define internal fastcc void @lsi_bad_selection(ptr noundef %s, i32 noundef range(i32 0, 16) %id) unnamed_addr #0 {
entry:
  %_now.i.i = alloca %struct.timeval, align 8
  call void @llvm.lifetime.start.p0(i64 16, ptr nonnull %_now.i.i)
  %0 = load i32, ptr @trace_events_enabled_count, align 4
  %tobool.i.i = icmp ne i32 %0, 0
  %1 = load i16, ptr @_TRACE_LSI_BAD_SELECTION_DSTATE, align 2
  %tobool4.i.i = icmp ne i16 %1, 0
  %or.cond.i.i = select i1 %tobool.i.i, i1 %tobool4.i.i, i1 false
  br i1 %or.cond.i.i, label %land.lhs.true5.i.i, label %trace_lsi_bad_selection.exit

land.lhs.true5.i.i:                               ; preds = %entry
  %2 = load i32, ptr @qemu_loglevel, align 4
  %and.i.i.i = and i32 %2, 32768
  %cmp.i.not.i.i = icmp eq i32 %and.i.i.i, 0
  br i1 %cmp.i.not.i.i, label %trace_lsi_bad_selection.exit, label %if.then.i.i

if.then.i.i:                                      ; preds = %land.lhs.true5.i.i
  %3 = load i8, ptr @message_with_timestamp, align 1
  %tobool7.i.i = trunc i8 %3 to i1
  br i1 %tobool7.i.i, label %if.then8.i.i, label %if.else.i.i

if.then8.i.i:                                     ; preds = %if.then.i.i
  %call9.i.i = call i32 @gettimeofday(ptr noundef nonnull %_now.i.i, ptr noundef null) #12
  %call10.i.i = tail call i32 @qemu_get_thread_id() #12
  %4 = load i64, ptr %_now.i.i, align 8
  %tv_usec.i.i = getelementptr inbounds nuw i8, ptr %_now.i.i, i64 8
  %5 = load i64, ptr %tv_usec.i.i, align 8
  tail call void (ptr, ...) @qemu_log(ptr noundef nonnull @.str.229, i32 noundef %call10.i.i, i64 noundef %4, i64 noundef %5, i32 noundef range(i32 0, 16) %id) #12
  br label %trace_lsi_bad_selection.exit

if.else.i.i:                                      ; preds = %if.then.i.i
  tail call void (ptr, ...) @qemu_log(ptr noundef nonnull @.str.230, i32 noundef range(i32 0, 16) %id) #12
  br label %trace_lsi_bad_selection.exit

trace_lsi_bad_selection.exit:                     ; preds = %entry, %land.lhs.true5.i.i, %if.then8.i.i, %if.else.i.i
  call void @llvm.lifetime.end.p0(i64 16, ptr nonnull %_now.i.i)
  tail call fastcc void @lsi_script_scsi_interrupt(ptr noundef %s, i32 noundef 0, i32 noundef 4)
  %scntl1.i = getelementptr inbounds nuw i8, ptr %s, i64 3791
  %6 = load i8, ptr %scntl1.i, align 1
  %7 = and i8 %6, -17
  store i8 %7, ptr %scntl1.i, align 1
  %sstat1.i = getelementptr inbounds nuw i8, ptr %s, i64 3795
  %8 = load i8, ptr %sstat1.i, align 1
  %9 = and i8 %8, -8
  store i8 %9, ptr %sstat1.i, align 1
  %sbcl.i = getelementptr inbounds nuw i8, ptr %s, i64 3802
  store i8 0, ptr %sbcl.i, align 2
  ret void
}